; Function Attrs: nounwind uwtable
define internal range(i32 -1, 1) i32 @lp_uint(ptr noundef readonly captures(none) %0, ptr noundef writeonly captures(none) %1, ptr noundef %2, ptr noundef readonly captures(none) %3) #0 {
  %5 = alloca i64, align 8
  call void @llvm.lifetime.start.p0(i64 8, ptr nonnull %5) #7
  %6 = call fastcc i32 @get_ulong(ptr noundef %0, ptr noundef %2, ptr noundef %5)
  %7 = icmp slt i32 %6, 0
  br i1 %7, label %8, label %15

8:                                                ; preds = %4
  %9 = load ptr, ptr @PyExc_OverflowError, align 8, !tbaa !17
  %10 = tail call i32 @PyErr_ExceptionMatches(ptr noundef %9) #7
  %.not20 = icmp eq i32 %10, 0
  br i1 %.not20, label %.loopexit, label %11

11:                                               ; preds = %8
  %12 = getelementptr inbounds nuw i8, ptr %3, i64 8
  %13 = load i64, ptr %12, align 8, !tbaa !67
  %14 = shl i64 %13, 3
  br label %.loopexit.sink.split

15:                                               ; preds = %4
  %16 = getelementptr inbounds nuw i8, ptr %3, i64 8
  %17 = load i64, ptr %16, align 8, !tbaa !67
  %.not = icmp eq i64 %17, 8
  %.promoted.pre = load i64, ptr %5, align 8, !tbaa !81
  br i1 %.not, label %.critedge.preheader, label %18

18:                                               ; preds = %15
  %19 = shl i64 %17, 3
  %.highbits = lshr i64 %.promoted.pre, %19
  %.not19 = icmp eq i64 %.highbits, 0
  br i1 %.not19, label %.critedge.preheader, label %.loopexit.sink.split

.critedge.preheader:                              ; preds = %18, %15
  br label %.critedge

.critedge:                                        ; preds = %.critedge.preheader, %.critedge
  %20 = phi i64 [ %23, %.critedge ], [ %.promoted.pre, %.critedge.preheader ]
  %.017 = phi i64 [ %24, %.critedge ], [ %17, %.critedge.preheader ]
  %.016 = phi ptr [ %22, %.critedge ], [ %1, %.critedge.preheader ]
  %21 = trunc i64 %20 to i8
  %22 = getelementptr i8, ptr %.016, i64 1
  store i8 %21, ptr %.016, align 1, !tbaa !18
  %23 = lshr i64 %20, 8
  %24 = add i64 %.017, -1
  %25 = icmp sgt i64 %24, 0
  br i1 %25, label %.critedge, label %.loopexit, !llvm.loop !94

.loopexit.sink.split:                             ; preds = %18, %11
  %.sink = phi i64 [ %14, %11 ], [ %19, %18 ]
  %26 = sub i64 64, %.sink
  %27 = getelementptr inbounds nuw i8, ptr %0, i64 24
  %28 = load ptr, ptr %27, align 8, !tbaa !16
  %29 = load i8, ptr %3, align 8, !tbaa !49
  %30 = sext i8 %29 to i32
  %31 = lshr i64 -1, %26
  %32 = tail call ptr (ptr, ptr, ...) @PyErr_Format(ptr noundef %28, ptr noundef nonnull @.str.51, i32 noundef %30, i64 noundef %31) #7
  br label %.loopexit

.loopexit:                                        ; preds = %.critedge, %.loopexit.sink.split, %8
  %.0 = phi i32 [ -1, %8 ], [ -1, %.loopexit.sink.split ], [ 0, %.critedge ]
  call void @llvm.lifetime.end.p0(i64 8, ptr nonnull %5) #7
  ret i32 %.0
}